; ModuleID = '30/2213.c'
source_filename = "30/2213.c"
target datalayout = "e-m:e-p270:32:32-p271:32:32-p272:64:64-i64:64-f80:128-n8:16:32:64-S128"
target triple = "x86_64-pc-linux-gnu"

@.str = private unnamed_addr constant [3 x i8] c"%d\00", align 1

; Function Attrs: noinline nounwind uwtable
define dso_local i32 @main() #0 {
  %1 = alloca i32, align 4
  %2 = alloca i32, align 4
  %3 = alloca i32, align 4
  %4 = alloca i32, align 4
  %5 = alloca i32, align 4
  %6 = alloca i32, align 4
  %7 = alloca i32, align 4
  %8 = alloca i32, align 4
  %9 = alloca i32, align 4
  store i32 0, i32* %1, align 4
  store i32 0, i32* %4, align 4
  store i32 0, i32* %5, align 4
  store i32 0, i32* %6, align 4
  store i32 0, i32* %7, align 4
  store i32 0, i32* %8, align 4
  store i32 0, i32* %9, align 4
  %10 = call i32 (i8*, ...) @__isoc99_scanf(i8* getelementptr inbounds ([3 x i8], [3 x i8]* @.str, i64 0, i64 0), i32* %2)
  store i32 1, i32* %3, align 4
  br label %11

11:                                               ; preds = %48, %0
  %12 = load i32, i32* %3, align 4
  %13 = load i32, i32* %2, align 4
  %14 = icmp sle i32 %12, %13
  br i1 %14, label %15, label %51

15:                                               ; preds = %11
  %16 = load i32, i32* %3, align 4
  %17 = srem i32 %16, 7
  %18 = icmp eq i32 %17, 0
  br i1 %18, label %19, label %25

19:                                               ; preds = %15
  %20 = load i32, i32* %3, align 4
  %21 = load i32, i32* %3, align 4
  %22 = mul nsw i32 %20, %21
  %23 = load i32, i32* %5, align 4
  %24 = add nsw i32 %23, %22
  store i32 %24, i32* %5, align 4
  br label %47

25:                                               ; preds = %15
  %26 = load i32, i32* %3, align 4
  %27 = srem i32 %26, 10
  %28 = icmp eq i32 %27, 7
  br i1 %28, label %29, label %35

29:                                               ; preds = %25
  %30 = load i32, i32* %3, align 4
  %31 = load i32, i32* %3, align 4
  %32 = mul nsw i32 %30, %31
  %33 = load i32, i32* %6, align 4
  %34 = add nsw i32 %33, %32
  store i32 %34, i32* %6, align 4
  br label %46

35:                                               ; preds = %25
  %36 = load i32, i32* %3, align 4
  %37 = sdiv i32 %36, 10
  %38 = icmp eq i32 %37, 7
  br i1 %38, label %39, label %45

39:                                               ; preds = %35
  %40 = load i32, i32* %3, align 4
  %41 = load i32, i32* %3, align 4
  %42 = mul nsw i32 %40, %41
  %43 = load i32, i32* %7, align 4
  %44 = add nsw i32 %43, %42
  store i32 %44, i32* %7, align 4
  br label %45

45:                                               ; preds = %39, %35
  br label %46

46:                                               ; preds = %45, %29
  br label %47

47:                                               ; preds = %46, %19
  br label %48

48:                                               ; preds = %47
  %49 = load i32, i32* %3, align 4
  %50 = add nsw i32 %49, 1
  store i32 %50, i32* %3, align 4
  br label %11

51:                                               ; preds = %11
  %52 = load i32, i32* %5, align 4
  %53 = load i32, i32* %7, align 4
  %54 = add nsw i32 %52, %53
  %55 = load i32, i32* %6, align 4
  %56 = add nsw i32 %54, %55
  store i32 %56, i32* %4, align 4
  store i32 1, i32* %3, align 4
  br label %57

57:                                               ; preds = %67, %51
  %58 = load i32, i32* %3, align 4
  %59 = load i32, i32* %2, align 4
  %60 = icmp sle i32 %58, %59
  br i1 %60, label %61, label %70

61:                                               ; preds = %57
  %62 = load i32, i32* %3, align 4
  %63 = load i32, i32* %3, align 4
  %64 = mul nsw i32 %62, %63
  %65 = load i32, i32* %9, align 4
  %66 = add nsw i32 %65, %64
  store i32 %66, i32* %9, align 4
  br label %67

67:                                               ; preds = %61
  %68 = load i32, i32* %3, align 4
  %69 = add nsw i32 %68, 1
  store i32 %69, i32* %3, align 4
  br label %57

70:                                               ; preds = %57
  %71 = load i32, i32* %9, align 4
  %72 = load i32, i32* %4, align 4
  %73 = sub nsw i32 %71, %72
  store i32 %73, i32* %8, align 4
  %74 = load i32, i32* %8, align 4
  %75 = call i32 (i8*, ...) @printf(i8* getelementptr inbounds ([3 x i8], [3 x i8]* @.str, i64 0, i64 0), i32 %74)
  ret i32 0
}

declare dso_local i32 @__isoc99_scanf(i8*, ...) #1

declare dso_local i32 @printf(i8*, ...) #1


!llvm.module.flags = !{!0}
!llvm.ident = !{!1}

!0 = !{i32 1, !"wchar_size", i32 4}
!1 = !{!"clang version 10.0.0-4ubuntu1 "}
